target datalayout = "e-m:e-p270:32:32-p271:32:32-p272:64:64-i64:64-i128:128-f80:128-n8:16:32:64-S128"
target triple = "x86_64-pc-linux-gnu"

%"class.cvc5::internal::NodeTemplate" = type { ptr }
%"class.std::vector" = type { %"struct.std::_Vector_base" }
%"struct.std::_Vector_base" = type { %"struct.std::_Vector_base<cvc5::internal::NodeTemplate<true>, std::allocator<cvc5::internal::NodeTemplate<true>>>::_Vector_impl" }
%"struct.std::_Vector_base<cvc5::internal::NodeTemplate<true>, std::allocator<cvc5::internal::NodeTemplate<true>>>::_Vector_impl" = type { %"struct.std::_Vector_base<cvc5::internal::NodeTemplate<true>, std::allocator<cvc5::internal::NodeTemplate<true>>>::_Vector_impl_data" }
%"struct.std::_Vector_base<cvc5::internal::NodeTemplate<true>, std::allocator<cvc5::internal::NodeTemplate<true>>>::_Vector_impl_data" = type { ptr, ptr, ptr }
%"class.cvc5::internal::theory::quantifiers::inst::Trigger" = type { %"class.cvc5::internal::EnvObj", %"class.std::vector", %"class.cvc5::internal::NodeTemplate", %"class.std::vector", ptr, ptr, ptr, ptr, %"class.cvc5::internal::NodeTemplate", ptr, %"class.cvc5::internal::theory::quantifiers::InstMatch" }
%"class.cvc5::internal::EnvObj" = type { ptr, ptr }
%"class.cvc5::internal::theory::quantifiers::InstMatch" = type { %"class.cvc5::internal::EnvObj", ptr, ptr, %"class.std::vector", %"class.cvc5::internal::NodeTemplate", ptr }

; Function Attrs: mustprogress uwtable
define hidden noundef i32 @_ZN4cvc58internal6theory11quantifiers4inst7Trigger14getActiveScoreEv(ptr noundef nonnull align 8 dereferenceable(192) %0) #4 align 2 {
  %2 = alloca ptr, align 8
  store ptr %0, ptr %2, align 8, !tbaa !3
  %3 = load ptr, ptr %2, align 8
  %4 = getelementptr inbounds nuw %"class.cvc5::internal::theory::quantifiers::inst::Trigger", ptr %3, i32 0, i32 9
  %5 = load ptr, ptr %4, align 8, !tbaa !51
  %6 = load ptr, ptr %5, align 8, !tbaa !24
  %7 = getelementptr inbounds ptr, ptr %6, i64 6
  %8 = load ptr, ptr %7, align 8
  %9 = call noundef i32 %8(ptr noundef nonnull align 8 dereferenceable(40) %5)
  ret i32 %9
}